target datalayout = "e-m:e-p270:32:32-p271:32:32-p272:64:64-i64:64-i128:128-f80:128-n8:16:32:64-S128"
target triple = "x86_64-pc-linux-gnu"

%struct.pm_lex_mode = type { i32, %union.anon, ptr }
%union.anon = type { %struct.anon.3 }
%struct.anon.3 = type { %struct.pm_heredoc_lex_mode_t, ptr, ptr, i8 }
%struct.pm_heredoc_lex_mode_t = type { ptr, i64, i32, i32 }
%struct.pm_parser = type { i32, i32, i32, i32, i32, i32, i32, %struct.anon, ptr, ptr, %struct.pm_token_t, %struct.pm_token_t, ptr, ptr, %struct.pm_list_t, %struct.pm_list_t, %struct.pm_location_t, %struct.pm_list_t, %struct.pm_list_t, ptr, ptr, ptr, ptr, ptr, ptr, ptr, %struct.pm_string_t, %struct.pm_constant_pool_t, %struct.pm_newline_list_t, i16, %struct.pm_string_t, i32, ptr, ptr, i32, i8, i8, i8, i8, i8, i8, i8, i8, i8, i8, i8, i8, i8 }
%struct.anon = type { ptr, [4 x %struct.pm_lex_mode], i64 }
%struct.pm_token_t = type { i32, ptr, ptr }
%struct.pm_location_t = type { ptr, ptr }
%struct.pm_list_t = type { i64, ptr, ptr }
%struct.pm_constant_pool_t = type { ptr, ptr, i32, i32 }
%struct.pm_newline_list_t = type { ptr, i64, i64, ptr }
%struct.pm_string_t = type { ptr, i64, i32 }
%struct.pm_node = type { i16, i16, i32, %struct.pm_location_t }
%struct.pm_call_node = type { %struct.pm_node, ptr, %struct.pm_location_t, i32, %struct.pm_location_t, %struct.pm_location_t, ptr, %struct.pm_location_t, ptr }
%struct.pm_constant_t = type { ptr, i64 }
%struct.pm_call_and_write_node = type { %struct.pm_node, ptr, %struct.pm_location_t, %struct.pm_location_t, i32, i32, %struct.pm_location_t, ptr }

@.str.93 = private unnamed_addr constant [1 x i8] zeroinitializer, align 1
@stderr = external global ptr, align 8
@.str.94 = private unnamed_addr constant [29 x i8] c"Failed to allocate %d bytes\0A\00", align 1

; Function Attrs: inlinehint nounwind sspstrong uwtable
define internal i32 @pm_parser_constant_id_constant(ptr noundef %0, ptr noundef %1, i64 noundef %2) #7 {
  %4 = alloca ptr, align 8
  %5 = alloca ptr, align 8
  %6 = alloca i64, align 8
  store ptr %0, ptr %4, align 8, !tbaa !7
  store ptr %1, ptr %5, align 8, !tbaa !12
  store i64 %2, ptr %6, align 8, !tbaa !14
  %7 = load ptr, ptr %4, align 8, !tbaa !7
  %8 = getelementptr inbounds nuw %struct.pm_parser, ptr %7, i32 0, i32 27
  %9 = load ptr, ptr %5, align 8, !tbaa !12
  %10 = load i64, ptr %6, align 8, !tbaa !14
  %11 = call i32 @pm_constant_pool_insert_constant(ptr noundef %8, ptr noundef %9, i64 noundef %10)
  ret i32 %11
}

; Function Attrs: alwaysinline nounwind
define internal ptr @memcpy.inline(ptr noalias nonnull %0, ptr noalias nonnull %1, i64 %2) #6 {
  %4 = alloca ptr, align 8
  %5 = alloca ptr, align 8
  %6 = alloca i64, align 8
  store ptr %0, ptr %4, align 8, !tbaa !57
  store ptr %1, ptr %5, align 8, !tbaa !57
  store i64 %2, ptr %6, align 8, !tbaa !14
  %7 = load ptr, ptr %4, align 8, !tbaa !57
  %8 = load ptr, ptr %5, align 8, !tbaa !57
  %9 = load i64, ptr %6, align 8, !tbaa !14
  %10 = load ptr, ptr %4, align 8, !tbaa !57
  %11 = call i64 @llvm.objectsize.i64.p0(ptr %10, i1 false, i1 true, i1 false)
  %12 = call ptr @__memcpy_chk(ptr noundef %7, ptr noundef %8, i64 noundef %9, i64 noundef %11) #15
  ret ptr %12
}

; Function Attrs: nounwind sspstrong uwtable
define internal void @pm_call_write_read_name_init(ptr noundef %0, ptr noundef %1, ptr noundef %2) #0 {
  %4 = alloca ptr, align 8
  %5 = alloca ptr, align 8
  %6 = alloca ptr, align 8
  %7 = alloca ptr, align 8
  %8 = alloca i64, align 8
  %9 = alloca ptr, align 8
  store ptr %0, ptr %4, align 8, !tbaa !7
  store ptr %1, ptr %5, align 8, !tbaa !162
  store ptr %2, ptr %6, align 8, !tbaa !162
  call void @llvm.lifetime.start.p0(i64 8, ptr %7) #15
  %10 = load ptr, ptr %4, align 8, !tbaa !7
  %11 = getelementptr inbounds nuw %struct.pm_parser, ptr %10, i32 0, i32 27
  %12 = load ptr, ptr %6, align 8, !tbaa !162
  %13 = load i32, ptr %12, align 4, !tbaa !52
  %14 = call ptr @pm_constant_pool_id_to_constant(ptr noundef %11, i32 noundef %13)
  store ptr %14, ptr %7, align 8, !tbaa !57
  %15 = load ptr, ptr %7, align 8, !tbaa !57
  %16 = getelementptr inbounds nuw %struct.pm_constant_t, ptr %15, i32 0, i32 1
  %17 = load i64, ptr %16, align 8, !tbaa !217
  %18 = icmp ugt i64 %17, 0
  br i1 %18, label %19, label %38

19:                                               ; preds = %3
  call void @llvm.lifetime.start.p0(i64 8, ptr %8) #15
  %20 = load ptr, ptr %7, align 8, !tbaa !57
  %21 = getelementptr inbounds nuw %struct.pm_constant_t, ptr %20, i32 0, i32 1
  %22 = load i64, ptr %21, align 8, !tbaa !217
  %23 = sub i64 %22, 1
  store i64 %23, ptr %8, align 8, !tbaa !14
  call void @llvm.lifetime.start.p0(i64 8, ptr %9) #15
  %24 = load i64, ptr %8, align 8, !tbaa !14
  %25 = call noalias ptr @malloc(i64 noundef %24) #16
  store ptr %25, ptr %9, align 8, !tbaa !57
  %26 = load ptr, ptr %9, align 8, !tbaa !57
  %27 = load ptr, ptr %7, align 8, !tbaa !57
  %28 = getelementptr inbounds nuw %struct.pm_constant_t, ptr %27, i32 0, i32 0
  %29 = load ptr, ptr %28, align 8, !tbaa !219
  %30 = load i64, ptr %8, align 8, !tbaa !14
  %31 = call ptr @memcpy.inline(ptr noundef %26, ptr noundef %29, i64 noundef %30) #15
  %32 = load ptr, ptr %4, align 8, !tbaa !7
  %33 = getelementptr inbounds nuw %struct.pm_parser, ptr %32, i32 0, i32 27
  %34 = load ptr, ptr %9, align 8, !tbaa !57
  %35 = load i64, ptr %8, align 8, !tbaa !14
  %36 = call i32 @pm_constant_pool_insert_owned(ptr noundef %33, ptr noundef %34, i64 noundef %35)
  %37 = load ptr, ptr %5, align 8, !tbaa !162
  store i32 %36, ptr %37, align 4, !tbaa !52
  call void @llvm.lifetime.end.p0(i64 8, ptr %9) #15
  call void @llvm.lifetime.end.p0(i64 8, ptr %8) #15
  br label %42

38:                                               ; preds = %3
  %39 = load ptr, ptr %4, align 8, !tbaa !7
  %40 = call i32 @pm_parser_constant_id_constant(ptr noundef %39, ptr noundef @.str.93, i64 noundef 0)
  %41 = load ptr, ptr %5, align 8, !tbaa !162
  store i32 %40, ptr %41, align 4, !tbaa !52
  br label %42

42:                                               ; preds = %38, %19
  call void @llvm.lifetime.end.p0(i64 8, ptr %7) #15
  ret void
}

; Function Attrs: inlinehint nounwind sspstrong uwtable
define internal ptr @pm_node_alloc(ptr noundef %0, i64 noundef %1) #7 {
  %3 = alloca ptr, align 8
  %4 = alloca i64, align 8
  %5 = alloca ptr, align 8
  store ptr %0, ptr %3, align 8, !tbaa !7
  store i64 %1, ptr %4, align 8, !tbaa !14
  call void @llvm.lifetime.start.p0(i64 8, ptr %5) #15
  %6 = load i64, ptr %4, align 8, !tbaa !14
  %7 = call noalias ptr @calloc(i64 noundef 1, i64 noundef %6) #18
  store ptr %7, ptr %5, align 8, !tbaa !57
  %8 = load ptr, ptr %5, align 8, !tbaa !57
  %9 = icmp eq ptr %8, null
  br i1 %9, label %10, label %15

10:                                               ; preds = %2
  %11 = load ptr, ptr @stderr, align 8, !tbaa !452
  %12 = load i64, ptr %4, align 8, !tbaa !14
  %13 = trunc i64 %12 to i32
  %14 = call i32 (ptr, i32, ptr, ...) @__fprintf_chk(ptr noundef %11, i32 noundef 1, ptr noundef @.str.94, i32 noundef %13)
  call void @abort() #19
  unreachable

15:                                               ; preds = %2
  %16 = load ptr, ptr %5, align 8, !tbaa !57
  call void @llvm.lifetime.end.p0(i64 8, ptr %5) #15
  ret ptr %16
}

; Function Attrs: nounwind sspstrong uwtable
define internal ptr @pm_call_and_write_node_create(ptr noundef %0, ptr noundef %1, ptr noundef %2, ptr noundef %3) #0 {
  %5 = alloca ptr, align 8
  %6 = alloca ptr, align 8
  %7 = alloca ptr, align 8
  %8 = alloca ptr, align 8
  %9 = alloca ptr, align 8
  %10 = alloca %struct.pm_call_and_write_node, align 8
  store ptr %0, ptr %5, align 8, !tbaa !7
  store ptr %1, ptr %6, align 8, !tbaa !210
  store ptr %2, ptr %7, align 8, !tbaa !57
  store ptr %3, ptr %8, align 8, !tbaa !128
  call void @llvm.lifetime.start.p0(i64 8, ptr %9) #15
  %11 = load ptr, ptr %5, align 8, !tbaa !7
  %12 = call ptr @pm_node_alloc(ptr noundef %11, i64 noundef 96)
  store ptr %12, ptr %9, align 8, !tbaa !1066
  %13 = load ptr, ptr %9, align 8, !tbaa !1066
  %14 = getelementptr inbounds nuw %struct.pm_call_and_write_node, ptr %10, i32 0, i32 0
  %15 = getelementptr inbounds nuw %struct.pm_node, ptr %14, i32 0, i32 0
  store i16 18, ptr %15, align 8, !tbaa !206
  %16 = getelementptr inbounds nuw %struct.pm_node, ptr %14, i32 0, i32 1
  %17 = load ptr, ptr %6, align 8, !tbaa !210
  %18 = getelementptr inbounds nuw %struct.pm_call_node, ptr %17, i32 0, i32 0
  %19 = getelementptr inbounds nuw %struct.pm_node, ptr %18, i32 0, i32 1
  %20 = load i16, ptr %19, align 2, !tbaa !982
  store i16 %20, ptr %16, align 2, !tbaa !222
  %21 = getelementptr inbounds nuw %struct.pm_node, ptr %14, i32 0, i32 2
  %22 = load ptr, ptr %5, align 8, !tbaa !7
  %23 = getelementptr inbounds nuw %struct.pm_parser, ptr %22, i32 0, i32 0
  %24 = load i32, ptr %23, align 8, !tbaa !238
  %25 = add i32 %24, 1
  store i32 %25, ptr %23, align 8, !tbaa !238
  store i32 %25, ptr %21, align 4, !tbaa !239
  %26 = getelementptr inbounds nuw %struct.pm_node, ptr %14, i32 0, i32 3
  %27 = getelementptr inbounds nuw %struct.pm_location_t, ptr %26, i32 0, i32 0
  %28 = load ptr, ptr %6, align 8, !tbaa !210
  %29 = getelementptr inbounds nuw %struct.pm_call_node, ptr %28, i32 0, i32 0
  %30 = getelementptr inbounds nuw %struct.pm_node, ptr %29, i32 0, i32 3
  %31 = getelementptr inbounds nuw %struct.pm_location_t, ptr %30, i32 0, i32 0
  %32 = load ptr, ptr %31, align 8, !tbaa !499
  store ptr %32, ptr %27, align 8, !tbaa !152
  %33 = getelementptr inbounds nuw %struct.pm_location_t, ptr %26, i32 0, i32 1
  %34 = load ptr, ptr %8, align 8, !tbaa !128
  %35 = getelementptr inbounds nuw %struct.pm_node, ptr %34, i32 0, i32 3
  %36 = getelementptr inbounds nuw %struct.pm_location_t, ptr %35, i32 0, i32 1
  %37 = load ptr, ptr %36, align 8, !tbaa !224
  store ptr %37, ptr %33, align 8, !tbaa !153
  %38 = getelementptr inbounds nuw %struct.pm_call_and_write_node, ptr %10, i32 0, i32 1
  %39 = load ptr, ptr %6, align 8, !tbaa !210
  %40 = getelementptr inbounds nuw %struct.pm_call_node, ptr %39, i32 0, i32 1
  %41 = load ptr, ptr %40, align 8, !tbaa !731
  store ptr %41, ptr %38, align 8, !tbaa !1068
  %42 = getelementptr inbounds nuw %struct.pm_call_and_write_node, ptr %10, i32 0, i32 2
  %43 = load ptr, ptr %6, align 8, !tbaa !210
  %44 = getelementptr inbounds nuw %struct.pm_call_node, ptr %43, i32 0, i32 2
  call void @llvm.memcpy.p0.p0.i64(ptr align 8 %42, ptr align 8 %44, i64 16, i1 false), !tbaa.struct !241
  %45 = getelementptr inbounds nuw %struct.pm_call_and_write_node, ptr %10, i32 0, i32 3
  %46 = load ptr, ptr %6, align 8, !tbaa !210
  %47 = getelementptr inbounds nuw %struct.pm_call_node, ptr %46, i32 0, i32 4
  call void @llvm.memcpy.p0.p0.i64(ptr align 8 %45, ptr align 8 %47, i64 16, i1 false), !tbaa.struct !241
  %48 = getelementptr inbounds nuw %struct.pm_call_and_write_node, ptr %10, i32 0, i32 4
  store i32 0, ptr %48, align 8, !tbaa !1070
  %49 = getelementptr inbounds nuw %struct.pm_call_and_write_node, ptr %10, i32 0, i32 5
  %50 = load ptr, ptr %6, align 8, !tbaa !210
  %51 = getelementptr inbounds nuw %struct.pm_call_node, ptr %50, i32 0, i32 3
  %52 = load i32, ptr %51, align 8, !tbaa !216
  store i32 %52, ptr %49, align 4, !tbaa !1071
  %53 = getelementptr inbounds nuw %struct.pm_call_and_write_node, ptr %10, i32 0, i32 6
  %54 = getelementptr inbounds nuw %struct.pm_location_t, ptr %53, i32 0, i32 0
  %55 = load ptr, ptr %7, align 8, !tbaa !57
  %56 = getelementptr inbounds nuw %struct.pm_token_t, ptr %55, i32 0, i32 1
  %57 = load ptr, ptr %56, align 8, !tbaa !43
  store ptr %57, ptr %54, align 8, !tbaa !152
  %58 = getelementptr inbounds nuw %struct.pm_location_t, ptr %53, i32 0, i32 1
  %59 = load ptr, ptr %7, align 8, !tbaa !57
  %60 = getelementptr inbounds nuw %struct.pm_token_t, ptr %59, i32 0, i32 2
  %61 = load ptr, ptr %60, align 8, !tbaa !44
  store ptr %61, ptr %58, align 8, !tbaa !153
  %62 = getelementptr inbounds nuw %struct.pm_call_and_write_node, ptr %10, i32 0, i32 7
  %63 = load ptr, ptr %8, align 8, !tbaa !128
  store ptr %63, ptr %62, align 8, !tbaa !1072
  call void @llvm.memcpy.p0.p0.i64(ptr align 8 %13, ptr align 8 %10, i64 96, i1 false), !tbaa.struct !1073
  %64 = load ptr, ptr %5, align 8, !tbaa !7
  %65 = load ptr, ptr %9, align 8, !tbaa !1066
  %66 = getelementptr inbounds nuw %struct.pm_call_and_write_node, ptr %65, i32 0, i32 4
  %67 = load ptr, ptr %9, align 8, !tbaa !1066
  %68 = getelementptr inbounds nuw %struct.pm_call_and_write_node, ptr %67, i32 0, i32 5
  call void @pm_call_write_read_name_init(ptr noundef %64, ptr noundef %66, ptr noundef %68)
  %69 = load ptr, ptr %6, align 8, !tbaa !210
  call void @free(ptr noundef %69) #15
  %70 = load ptr, ptr %9, align 8, !tbaa !1066
  call void @llvm.lifetime.end.p0(i64 8, ptr %9) #15
  ret ptr %70
}