; Function Attrs: nounwind sspstrong uwtable
define internal fastcc noalias nonnull ptr @pm_call_and_write_node_create(ptr noundef %0, ptr noundef captures(none) %1, ptr %.8.val, ptr %.16.val, ptr noundef %2) unnamed_addr #1 {
  %4 = tail call noalias dereferenceable_or_null(96) ptr @calloc(i64 noundef 1, i64 noundef 96) #34
  %5 = icmp eq ptr %4, null
  br i1 %5, label %6, label %pm_node_alloc.exit

6:                                                ; preds = %3
  %7 = load ptr, ptr @stderr, align 8, !tbaa !105
  %8 = tail call i32 (ptr, i32, ptr, ...) @__fprintf_chk(ptr noundef %7, i32 noundef 1, ptr noundef nonnull @.str.94, i32 noundef 96) #31
  tail call void @abort() #35
  unreachable

pm_node_alloc.exit:                               ; preds = %3
  %9 = getelementptr inbounds nuw i8, ptr %1, i64 2
  %10 = load i16, ptr %9, align 2, !tbaa !651
  %11 = load i32, ptr %0, align 8, !tbaa !107
  %12 = add i32 %11, 1
  store i32 %12, ptr %0, align 8, !tbaa !107
  %13 = getelementptr inbounds nuw i8, ptr %1, i64 8
  %14 = load ptr, ptr %13, align 8, !tbaa !121
  %15 = getelementptr inbounds nuw i8, ptr %2, i64 16
  %16 = load ptr, ptr %15, align 8, !tbaa !132
  %17 = getelementptr inbounds nuw i8, ptr %1, i64 24
  %18 = load ptr, ptr %17, align 8, !tbaa !123
  %19 = getelementptr inbounds nuw i8, ptr %1, i64 32
  %.sroa.7.0..sroa_idx = getelementptr inbounds nuw i8, ptr %4, i64 32
  tail call void @llvm.memcpy.p0.p0.i64(ptr noundef nonnull align 8 dereferenceable(16) %.sroa.7.0..sroa_idx, ptr noundef nonnull align 8 dereferenceable(16) %19, i64 16, i1 false)
  %20 = getelementptr inbounds nuw i8, ptr %1, i64 56
  %.sroa.8.0..sroa_idx = getelementptr inbounds nuw i8, ptr %4, i64 48
  tail call void @llvm.memcpy.p0.p0.i64(ptr noundef nonnull align 8 dereferenceable(16) %.sroa.8.0..sroa_idx, ptr noundef nonnull align 8 dereferenceable(16) %20, i64 16, i1 false)
  %21 = getelementptr inbounds nuw i8, ptr %1, i64 48
  %22 = load i32, ptr %21, align 8, !tbaa !118
  store i16 18, ptr %4, align 8, !tbaa !108
  %.sroa.2.0..sroa_idx = getelementptr inbounds nuw i8, ptr %4, i64 2
  store i16 %10, ptr %.sroa.2.0..sroa_idx, align 2, !tbaa !108
  %.sroa.3.0..sroa_idx = getelementptr inbounds nuw i8, ptr %4, i64 4
  store i32 %12, ptr %.sroa.3.0..sroa_idx, align 4, !tbaa !7
  %.sroa.4.0..sroa_idx = getelementptr inbounds nuw i8, ptr %4, i64 8
  store ptr %14, ptr %.sroa.4.0..sroa_idx, align 8, !tbaa !14
  %.sroa.5.0..sroa_idx = getelementptr inbounds nuw i8, ptr %4, i64 16
  store ptr %16, ptr %.sroa.5.0..sroa_idx, align 8, !tbaa !14
  %.sroa.6.0..sroa_idx = getelementptr inbounds nuw i8, ptr %4, i64 24
  store ptr %18, ptr %.sroa.6.0..sroa_idx, align 8, !tbaa !103
  %.sroa.10.0..sroa_idx = getelementptr inbounds nuw i8, ptr %4, i64 68
  store i32 %22, ptr %.sroa.10.0..sroa_idx, align 4, !tbaa !7
  %.sroa.11.0..sroa_idx = getelementptr inbounds nuw i8, ptr %4, i64 72
  store ptr %.8.val, ptr %.sroa.11.0..sroa_idx, align 8, !tbaa !14
  %.sroa.12.0..sroa_idx = getelementptr inbounds nuw i8, ptr %4, i64 80
  store ptr %.16.val, ptr %.sroa.12.0..sroa_idx, align 8, !tbaa !14
  %.sroa.13.0..sroa_idx = getelementptr inbounds nuw i8, ptr %4, i64 88
  store ptr %2, ptr %.sroa.13.0..sroa_idx, align 8, !tbaa !103
  %23 = getelementptr inbounds nuw i8, ptr %0, i64 576
  %24 = tail call ptr @pm_constant_pool_id_to_constant(ptr noundef nonnull %23, i32 noundef %22) #31
  %25 = getelementptr inbounds nuw i8, ptr %24, i64 8
  %26 = load i64, ptr %25, align 8, !tbaa !246
  %.not.i = icmp eq i64 %26, 0
  br i1 %.not.i, label %32, label %27

27:                                               ; preds = %pm_node_alloc.exit
  %28 = add i64 %26, -1
  %29 = tail call noalias ptr @malloc(i64 noundef %28) #32
  %30 = load ptr, ptr %24, align 8, !tbaa !248
  tail call void @llvm.memcpy.p0.p0.i64(ptr noundef nonnull align 1 %29, ptr noundef nonnull align 1 %30, i64 noundef %28, i1 noundef false) #31
  %31 = tail call i32 @pm_constant_pool_insert_owned(ptr noundef nonnull %23, ptr noundef nonnull %29, i64 noundef %28) #31
  br label %pm_call_write_read_name_init.exit

32:                                               ; preds = %pm_node_alloc.exit
  %33 = tail call i32 @pm_constant_pool_insert_constant(ptr noundef nonnull %23, ptr noundef nonnull @.str.93, i64 noundef 0) #31
  br label %pm_call_write_read_name_init.exit

pm_call_write_read_name_init.exit:                ; preds = %27, %32
  %storemerge.i = phi i32 [ %33, %32 ], [ %31, %27 ]
  %.sroa.9.0..sroa_idx = getelementptr inbounds nuw i8, ptr %4, i64 64
  store i32 %storemerge.i, ptr %.sroa.9.0..sroa_idx, align 4, !tbaa !7
  tail call void @free(ptr noundef nonnull %1) #31
  ret ptr %4
}